; ModuleID = '63/1319.c'
source_filename = "63/1319.c"
target datalayout = "e-m:e-p270:32:32-p271:32:32-p272:64:64-i64:64-f80:128-n8:16:32:64-S128"
target triple = "x86_64-pc-linux-gnu"

@.str = private unnamed_addr constant [6 x i8] c"%d %d\00", align 1
@.str.1 = private unnamed_addr constant [3 x i8] c"%d\00", align 1
@.str.2 = private unnamed_addr constant [4 x i8] c" %d\00", align 1
@.str.3 = private unnamed_addr constant [2 x i8] c"\0A\00", align 1

; Function Attrs: noinline nounwind uwtable
define dso_local i32 @main() #0 {
  %1 = alloca i32, align 4
  %2 = alloca i32, align 4
  %3 = alloca i32, align 4
  %4 = alloca i32, align 4
  %5 = alloca i32, align 4
  %6 = alloca [100 x [100 x i32]], align 16
  %7 = alloca i32, align 4
  %8 = alloca i32, align 4
  %9 = alloca [100 x [100 x i32]], align 16
  %10 = alloca [100 x [100 x i32]], align 16
  %11 = alloca i32, align 4
  %12 = alloca i32, align 4
  %13 = alloca i32, align 4
  %14 = alloca i32, align 4
  %15 = alloca i32, align 4
  %16 = alloca i32, align 4
  %17 = alloca i32, align 4
  store i32 0, i32* %1, align 4
  %18 = call i32 (i8*, ...) @__isoc99_scanf(i8* getelementptr inbounds ([6 x i8], [6 x i8]* @.str, i64 0, i64 0), i32* %2, i32* %3)
  store i32 0, i32* %7, align 4
  br label %19

19:                                               ; preds = %42, %0
  %20 = load i32, i32* %7, align 4
  %21 = load i32, i32* %2, align 4
  %22 = sub nsw i32 %21, 1
  %23 = icmp sle i32 %20, %22
  br i1 %23, label %24, label %45

24:                                               ; preds = %19
  store i32 0, i32* %8, align 4
  br label %25

25:                                               ; preds = %38, %24
  %26 = load i32, i32* %8, align 4
  %27 = load i32, i32* %3, align 4
  %28 = sub nsw i32 %27, 1
  %29 = icmp sle i32 %26, %28
  br i1 %29, label %30, label %41

30:                                               ; preds = %25
  %31 = load i32, i32* %7, align 4
  %32 = sext i32 %31 to i64
  %33 = getelementptr inbounds [100 x [100 x i32]], [100 x [100 x i32]]* %6, i64 0, i64 %32
  %34 = load i32, i32* %8, align 4
  %35 = sext i32 %34 to i64
  %36 = getelementptr inbounds [100 x i32], [100 x i32]* %33, i64 0, i64 %35
  %37 = call i32 (i8*, ...) @__isoc99_scanf(i8* getelementptr inbounds ([3 x i8], [3 x i8]* @.str.1, i64 0, i64 0), i32* %36)
  br label %38

38:                                               ; preds = %30
  %39 = load i32, i32* %8, align 4
  %40 = add nsw i32 %39, 1
  store i32 %40, i32* %8, align 4
  br label %25

41:                                               ; preds = %25
  br label %42

42:                                               ; preds = %41
  %43 = load i32, i32* %7, align 4
  %44 = add nsw i32 %43, 1
  store i32 %44, i32* %7, align 4
  br label %19

45:                                               ; preds = %19
  %46 = call i32 (i8*, ...) @__isoc99_scanf(i8* getelementptr inbounds ([6 x i8], [6 x i8]* @.str, i64 0, i64 0), i32* %4, i32* %5)
  %47 = bitcast [100 x [100 x i32]]* %10 to i8*
  call void @llvm.memset.p0i8.i64(i8* align 16 %47, i8 0, i64 40000, i1 false)
  store i32 0, i32* %11, align 4
  br label %48

48:                                               ; preds = %71, %45
  %49 = load i32, i32* %11, align 4
  %50 = load i32, i32* %4, align 4
  %51 = sub nsw i32 %50, 1
  %52 = icmp sle i32 %49, %51
  br i1 %52, label %53, label %74

53:                                               ; preds = %48
  store i32 0, i32* %12, align 4
  br label %54

54:                                               ; preds = %67, %53
  %55 = load i32, i32* %12, align 4
  %56 = load i32, i32* %5, align 4
  %57 = sub nsw i32 %56, 1
  %58 = icmp sle i32 %55, %57
  br i1 %58, label %59, label %70

59:                                               ; preds = %54
  %60 = load i32, i32* %11, align 4
  %61 = sext i32 %60 to i64
  %62 = getelementptr inbounds [100 x [100 x i32]], [100 x [100 x i32]]* %9, i64 0, i64 %61
  %63 = load i32, i32* %12, align 4
  %64 = sext i32 %63 to i64
  %65 = getelementptr inbounds [100 x i32], [100 x i32]* %62, i64 0, i64 %64
  %66 = call i32 (i8*, ...) @__isoc99_scanf(i8* getelementptr inbounds ([3 x i8], [3 x i8]* @.str.1, i64 0, i64 0), i32* %65)
  br label %67

67:                                               ; preds = %59
  %68 = load i32, i32* %12, align 4
  %69 = add nsw i32 %68, 1
  store i32 %69, i32* %12, align 4
  br label %54

70:                                               ; preds = %54
  br label %71

71:                                               ; preds = %70
  %72 = load i32, i32* %11, align 4
  %73 = add nsw i32 %72, 1
  store i32 %73, i32* %11, align 4
  br label %48

74:                                               ; preds = %48
  store i32 0, i32* %13, align 4
  br label %75

75:                                               ; preds = %124, %74
  %76 = load i32, i32* %13, align 4
  %77 = load i32, i32* %2, align 4
  %78 = sub nsw i32 %77, 1
  %79 = icmp sle i32 %76, %78
  br i1 %79, label %80, label %127

80:                                               ; preds = %75
  store i32 0, i32* %14, align 4
  br label %81

81:                                               ; preds = %120, %80
  %82 = load i32, i32* %14, align 4
  %83 = load i32, i32* %5, align 4
  %84 = sub nsw i32 %83, 1
  %85 = icmp sle i32 %82, %84
  br i1 %85, label %86, label %123

86:                                               ; preds = %81
  store i32 0, i32* %15, align 4
  br label %87

87:                                               ; preds = %116, %86
  %88 = load i32, i32* %15, align 4
  %89 = load i32, i32* %3, align 4
  %90 = sub nsw i32 %89, 1
  %91 = icmp sle i32 %88, %90
  br i1 %91, label %92, label %119

92:                                               ; preds = %87
  %93 = load i32, i32* %13, align 4
  %94 = sext i32 %93 to i64
  %95 = getelementptr inbounds [100 x [100 x i32]], [100 x [100 x i32]]* %6, i64 0, i64 %94
  %96 = load i32, i32* %15, align 4
  %97 = sext i32 %96 to i64
  %98 = getelementptr inbounds [100 x i32], [100 x i32]* %95, i64 0, i64 %97
  %99 = load i32, i32* %98, align 4
  %100 = load i32, i32* %15, align 4
  %101 = sext i32 %100 to i64
  %102 = getelementptr inbounds [100 x [100 x i32]], [100 x [100 x i32]]* %9, i64 0, i64 %101
  %103 = load i32, i32* %14, align 4
  %104 = sext i32 %103 to i64
  %105 = getelementptr inbounds [100 x i32], [100 x i32]* %102, i64 0, i64 %104
  %106 = load i32, i32* %105, align 4
  %107 = mul nsw i32 %99, %106
  %108 = load i32, i32* %13, align 4
  %109 = sext i32 %108 to i64
  %110 = getelementptr inbounds [100 x [100 x i32]], [100 x [100 x i32]]* %10, i64 0, i64 %109
  %111 = load i32, i32* %14, align 4
  %112 = sext i32 %111 to i64
  %113 = getelementptr inbounds [100 x i32], [100 x i32]* %110, i64 0, i64 %112
  %114 = load i32, i32* %113, align 4
  %115 = add nsw i32 %114, %107
  store i32 %115, i32* %113, align 4
  br label %116

116:                                              ; preds = %92
  %117 = load i32, i32* %15, align 4
  %118 = add nsw i32 %117, 1
  store i32 %118, i32* %15, align 4
  br label %87

119:                                              ; preds = %87
  br label %120

120:                                              ; preds = %119
  %121 = load i32, i32* %14, align 4
  %122 = add nsw i32 %121, 1
  store i32 %122, i32* %14, align 4
  br label %81

123:                                              ; preds = %81
  br label %124

124:                                              ; preds = %123
  %125 = load i32, i32* %13, align 4
  %126 = add nsw i32 %125, 1
  store i32 %126, i32* %13, align 4
  br label %75

127:                                              ; preds = %75
  store i32 0, i32* %16, align 4
  br label %128

128:                                              ; preds = %166, %127
  %129 = load i32, i32* %16, align 4
  %130 = load i32, i32* %2, align 4
  %131 = sub nsw i32 %130, 1
  %132 = icmp sle i32 %129, %131
  br i1 %132, label %133, label %169

133:                                              ; preds = %128
  store i32 0, i32* %17, align 4
  br label %134

134:                                              ; preds = %161, %133
  %135 = load i32, i32* %17, align 4
  %136 = load i32, i32* %5, align 4
  %137 = sub nsw i32 %136, 1
  %138 = icmp sle i32 %135, %137
  br i1 %138, label %139, label %164

139:                                              ; preds = %134
  %140 = load i32, i32* %17, align 4
  %141 = icmp eq i32 %140, 0
  br i1 %141, label %142, label %151

142:                                              ; preds = %139
  %143 = load i32, i32* %16, align 4
  %144 = sext i32 %143 to i64
  %145 = getelementptr inbounds [100 x [100 x i32]], [100 x [100 x i32]]* %10, i64 0, i64 %144
  %146 = load i32, i32* %17, align 4
  %147 = sext i32 %146 to i64
  %148 = getelementptr inbounds [100 x i32], [100 x i32]* %145, i64 0, i64 %147
  %149 = load i32, i32* %148, align 4
  %150 = call i32 (i8*, ...) @printf(i8* getelementptr inbounds ([3 x i8], [3 x i8]* @.str.1, i64 0, i64 0), i32 %149)
  br label %160

151:                                              ; preds = %139
  %152 = load i32, i32* %16, align 4
  %153 = sext i32 %152 to i64
  %154 = getelementptr inbounds [100 x [100 x i32]], [100 x [100 x i32]]* %10, i64 0, i64 %153
  %155 = load i32, i32* %17, align 4
  %156 = sext i32 %155 to i64
  %157 = getelementptr inbounds [100 x i32], [100 x i32]* %154, i64 0, i64 %156
  %158 = load i32, i32* %157, align 4
  %159 = call i32 (i8*, ...) @printf(i8* getelementptr inbounds ([4 x i8], [4 x i8]* @.str.2, i64 0, i64 0), i32 %158)
  br label %160

160:                                              ; preds = %151, %142
  br label %161

161:                                              ; preds = %160
  %162 = load i32, i32* %17, align 4
  %163 = add nsw i32 %162, 1
  store i32 %163, i32* %17, align 4
  br label %134

164:                                              ; preds = %134
  %165 = call i32 (i8*, ...) @printf(i8* getelementptr inbounds ([2 x i8], [2 x i8]* @.str.3, i64 0, i64 0))
  br label %166

166:                                              ; preds = %164
  %167 = load i32, i32* %16, align 4
  %168 = add nsw i32 %167, 1
  store i32 %168, i32* %16, align 4
  br label %128

169:                                              ; preds = %128
  %170 = load i32, i32* %1, align 4
  ret i32 %170
}

declare dso_local i32 @__isoc99_scanf(i8*, ...) #1

; Function Attrs: argmemonly nounwind willreturn
declare void @llvm.memset.p0i8.i64(i8* nocapture writeonly, i8, i64, i1 immarg) #2

declare dso_local i32 @printf(i8*, ...) #1


!llvm.module.flags = !{!0}
!llvm.ident = !{!1}

!0 = !{i32 1, !"wchar_size", i32 4}
!1 = !{!"clang version 10.0.0-4ubuntu1 "}
